Certificate:
    Data:
        Version: 3 (0x2)
        Serial Number: 3 (0x3)
        Signature Algorithm: md5WithRSAEncryption
        Issuer: O=My Company, OU=Sample CA, L=My Town, ST=My State, C=US, CN=Sample CA
        Validity
            Not Before: Nov 10 18:32:26 2010 GMT
            Not After : Nov  7 18:32:26 2020 GMT
        Subject: C=US, ST=My State, O=My Company, OU=ZatoAdmin, CN=localhost
        Subject Public Key Info:
            Public Key Algorithm: rsaEncryption
            RSA Public Key: (2048 bit)
                Modulus (2048 bit):
                    00:9b:c6:6d:44:30:4f:37:d4:92:96:c4:d0:72:03:
                    e7:25:62:a8:13:c2:54:29:c9:04:19:6f:8b:87:94:
                    64:37:95:eb:2d:ac:a4:87:79:ac:f3:92:a7:ec:08:
                    7c:72:8c:14:99:e7:9b:8c:d7:0f:24:15:56:7e:ea:
                    d4:e7:a1:6f:b7:14:0e:f5:60:45:44:13:34:7f:01:
                    6a:16:8e:04:6c:b3:16:05:eb:a0:dd:37:86:e3:65:
                    05:8b:4d:61:16:67:48:50:69:9e:83:fb:af:81:0b:
                    97:ef:2d:39:92:83:80:1a:93:11:be:5f:b5:b4:12:
                    14:3b:c9:8c:0a:68:d1:1c:3d:6e:b1:62:0e:b4:09:
                    ad:f7:4e:8d:75:17:6b:d8:8d:fd:75:c1:92:9c:9f:
                    ea:8c:77:b0:4b:57:94:6b:97:1a:e7:1e:af:7f:9e:
                    18:fc:f2:06:71:df:a3:a1:68:eb:74:4a:f4:dd:b8:
                    37:8f:1c:10:78:97:9a:75:b3:70:74:4f:30:a8:56:
                    dc:aa:92:09:6c:d1:7f:e1:5d:ee:09:2e:e2:8b:3f:
                    11:5c:17:84:e3:a2:88:53:10:c1:3f:bd:7c:cd:68:
                    a6:33:21:0d:4e:7e:f6:bd:1a:05:af:aa:88:56:44:
                    a2:a4:e8:4c:21:de:1f:a6:18:aa:03:21:80:ef:9f:
                    47:d5
                Exponent: 65537 (0x10001)
        X509v3 extensions:
            X509v3 Basic Constraints: 
                CA:FALSE
            X509v3 Subject Key Identifier: 
                94:4E:F2:E4:26:35:C9:C2:06:C1:AC:82:0B:D1:0B:F8:B3:0C:2F:60
            X509v3 Extended Key Usage: 
                TLS Web Server Authentication, TLS Web Client Authentication
    Signature Algorithm: md5WithRSAEncryption
        82:f6:0f:fd:47:99:5b:b1:be:ed:54:92:13:e1:f9:96:91:47:
        f6:4f:68:ac:aa:d5:81:ed:fd:64:09:8f:58:a8:c2:c2:5d:30:
        a4:67:e9:ff:04:4e:66:f7:dc:33:5c:00:9b:b4:cf:3c:74:aa:
        65:5e:da:a9:c8:b9:a8:da:ca:ff:7c:a1:60:a9:90:a5:4f:ca:
        f4:ce:e6:a5:a4:99:1e:6f:64:6a:50:75:0d:81:a2:63:e1:37:
        7d:c0:72:af:7b:e8:59:7b:68:ac:fe:ee:e7:e9:e0:bf:c9:b6:
        be:c7:85:a3:ce:51:d7:21:6d:f5:24:8b:fc:dc:dc:54:6f:47:
        30:59:9e:7e:f5:d1:a4:af:c1:4c:ef:f8:29:7d:8d:d3:fb:fd:
        e8:0c:b5:c2:7b:3d:04:c4:0e:bc:08:da:0d:e0:68:fe:7c:ce:
        4a:e2:68:e6:d4:c5:8b:cf:3e:46:a4:a5:80:84:f6:ab:91:5c:
        47:20:42:31:4a:12:79:af:bb:28:83:93:4b:47:ed:46:dd:16:
        35:3e:e6:40:22:8a:58:01:e5:ab:21:2f:6e:8a:f3:8c:81:3d:
        0d:8f:49:f4:bb:7f:36:77:db:b2:fe:60:a3:16:44:97:c9:81:
        eb:e3:a3:01:cb:ca:6f:61:42:ec:14:d2:e6:df:eb:f6:5b:1d:
        c1:42:e5:04
-----BEGIN CERTIFICATE-----
MIIDkjCCAnqgAwIBAgIBAzANBgkqhkiG9w0BAQQFADBvMRMwEQYDVQQKEwpNeSBD
b21wYW55MRIwEAYDVQQLEwlTYW1wbGUgQ0ExEDAOBgNVBAcTB015IFRvd24xETAP
BgNVBAgTCE15IFN0YXRlMQswCQYDVQQGEwJVUzESMBAGA1UEAxMJU2FtcGxlIENB
MB4XDTEwMTExMDE4MzIyNloXDTIwMTEwNzE4MzIyNlowXTELMAkGA1UEBhMCVVMx
ETAPBgNVBAgTCE15IFN0YXRlMRMwEQYDVQQKEwpNeSBDb21wYW55MRIwEAYDVQQL
EwlaYXRvQWRtaW4xEjAQBgNVBAMTCWxvY2FsaG9zdDCCASIwDQYJKoZIhvcNAQEB
BQADggEPADCCAQoCggEBAJvGbUQwTzfUkpbE0HID5yViqBPCVCnJBBlvi4eUZDeV
6y2spId5rPOSp+wIfHKMFJnnm4zXDyQVVn7q1Oehb7cUDvVgRUQTNH8BahaOBGyz
FgXroN03huNlBYtNYRZnSFBpnoP7r4ELl+8tOZKDgBqTEb5ftbQSFDvJjApo0Rw9
brFiDrQJrfdOjXUXa9iN/XXBkpyf6ox3sEtXlGuXGucer3+eGPzyBnHfo6Fo63RK
9N24N48cEHiXmnWzcHRPMKhW3KqSCWzRf+Fd7gku4os/EVwXhOOiiFMQwT+9fM1o
pjMhDU5+9r0aBa+qiFZEoqToTCHeH6YYqgMhgO+fR9UCAwEAAaNLMEkwCQYDVR0T
BAIwADAdBgNVHQ4EFgQUlE7y5CY1ycIGwayCC9EL+LMML2AwHQYDVR0lBBYwFAYI
KwYBBQUHAwEGCCsGAQUFBwMCMA0GCSqGSIb3DQEBBAUAA4IBAQCC9g/9R5lbsb7t
VJIT4fmWkUf2T2isqtWB7f1kCY9YqMLCXTCkZ+n/BE5m99wzXACbtM88dKplXtqp
yLmo2sr/fKFgqZClT8r0zualpJkeb2RqUHUNgaJj4Td9wHKve+hZe2is/u7n6eC/
yba+x4WjzlHXIW31JIv83NxUb0cwWZ5+9dGkr8FM7/gpfY3T+/3oDLXCez0ExA68
CNoN4Gj+fM5K4mjm1MWLzz5GpKWAhParkVxHIEIxShJ5r7sog5NLR+1G3RY1PuZA
IopYAeWrIS9uivOMgT0Nj0n0u382d9uy/mCjFkSXyYHr46MBy8pvYULsFNLm3+v2
Wx3BQuUE
-----END CERTIFICATE-----
